; Function Attrs: nounwind uwtable
define dso_local noundef zeroext i1 @listTSTemplates(ptr noundef %0, i1 noundef zeroext %1) local_unnamed_addr #0 {
  %3 = alloca %struct.PQExpBufferData, align 8
  %4 = alloca %struct.printQueryOpt, align 8
  call void @llvm.lifetime.start.p0(i64 24, ptr nonnull %3) #8
  call void @llvm.lifetime.start.p0(i64 168, ptr nonnull %4) #8
  call void @llvm.memcpy.p0.p0.i64(ptr noundef nonnull align 8 dereferenceable(168) %4, ptr noundef nonnull align 8 dereferenceable(168) getelementptr inbounds nuw (i8, ptr @pset, i64 48), i64 168, i1 false)
  call void @initPQExpBuffer(ptr noundef nonnull %3) #8
  br i1 %1, label %5, label %6

5:                                                ; preds = %2
  call void (ptr, ptr, ...) @printfPQExpBuffer(ptr noundef nonnull %3, ptr noundef nonnull @.str.459, ptr noundef nonnull @.str.1, ptr noundef nonnull @.str.2, ptr noundef nonnull @.str.460, ptr noundef nonnull @.str.461, ptr noundef nonnull @.str.6) #8
  br label %7

6:                                                ; preds = %2
  call void (ptr, ptr, ...) @printfPQExpBuffer(ptr noundef nonnull %3, ptr noundef nonnull @.str.462, ptr noundef nonnull @.str.1, ptr noundef nonnull @.str.2, ptr noundef nonnull @.str.6) #8
  br label %7

7:                                                ; preds = %6, %5
  call void @appendPQExpBufferStr(ptr noundef nonnull %3, ptr noundef nonnull @.str.463) #8
  %8 = call fastcc zeroext i1 @validateSQLNamePattern(ptr noundef %3, ptr noundef %0, i1 noundef zeroext false, i1 noundef zeroext false, ptr noundef nonnull @.str.9, ptr noundef nonnull @.str.464, ptr noundef null, ptr noundef nonnull @.str.465, ptr noundef null, i32 noundef 3)
  br i1 %8, label %10, label %9

9:                                                ; preds = %7
  call void @termPQExpBuffer(ptr noundef nonnull %3) #8
  br label %18

10:                                               ; preds = %7
  call void @appendPQExpBufferStr(ptr noundef nonnull %3, ptr noundef nonnull @.str.111) #8
  %11 = load ptr, ptr %3, align 8
  %12 = call ptr @PSQLexec(ptr noundef %11) #8
  call void @termPQExpBuffer(ptr noundef nonnull %3) #8
  %.not = icmp eq ptr %12, null
  br i1 %.not, label %18, label %13

13:                                               ; preds = %10
  %14 = getelementptr inbounds nuw i8, ptr %4, i64 128
  store ptr @.str.466, ptr %14, align 8
  %15 = getelementptr inbounds nuw i8, ptr %4, i64 144
  store i8 1, ptr %15, align 8
  %16 = load ptr, ptr getelementptr inbounds nuw (i8, ptr @pset, i64 16), align 8
  %17 = load ptr, ptr getelementptr inbounds nuw (i8, ptr @pset, i64 376), align 8
  call void @printQuery(ptr noundef nonnull %12, ptr noundef nonnull %4, ptr noundef %16, i1 noundef zeroext false, ptr noundef %17) #8
  call void @PQclear(ptr noundef nonnull %12) #8
  br label %18

18:                                               ; preds = %10, %13, %9
  %.0 = phi i1 [ true, %13 ], [ false, %9 ], [ false, %10 ]
  call void @llvm.lifetime.end.p0(i64 168, ptr nonnull %4) #8
  call void @llvm.lifetime.end.p0(i64 24, ptr nonnull %3) #8
  ret i1 %.0
}